; Function Attrs: mustprogress nounwind uwtable
define hidden void @_ZN3ue211RoseProgramD2Ev(ptr noundef nonnull readonly align 8 captures(none) dereferenceable(24) %0) unnamed_addr #4 align 2 personality ptr @__gxx_personality_v0 {
  %2 = load ptr, ptr %0, align 8
  %3 = getelementptr inbounds nuw i8, ptr %0, i64 8
  %4 = load ptr, ptr %3, align 8
  %.not4.i.i.i.i = icmp eq ptr %2, %4
  br i1 %.not4.i.i.i.i, label %_ZSt8_DestroyIPSt10unique_ptrIN3ue215RoseInstructionESt14default_deleteIS2_EES5_EvT_S7_RSaIT0_E.exit.i, label %.lr.ph.i.i.i.i

.lr.ph.i.i.i.i:                                   ; preds = %1, %_ZSt8_DestroyISt10unique_ptrIN3ue215RoseInstructionESt14default_deleteIS2_EEEvPT_.exit.i.i.i.i
  %.05.i.i.i.i = phi ptr [ %9, %_ZSt8_DestroyISt10unique_ptrIN3ue215RoseInstructionESt14default_deleteIS2_EEEvPT_.exit.i.i.i.i ], [ %2, %1 ]
  %5 = load ptr, ptr %.05.i.i.i.i, align 8
  %.not.i.i.i.i.i.i = icmp eq ptr %5, null
  br i1 %.not.i.i.i.i.i.i, label %_ZSt8_DestroyISt10unique_ptrIN3ue215RoseInstructionESt14default_deleteIS2_EEEvPT_.exit.i.i.i.i, label %_ZNKSt14default_deleteIN3ue215RoseInstructionEEclEPS1_.exit.i.i.i.i.i.i

_ZNKSt14default_deleteIN3ue215RoseInstructionEEclEPS1_.exit.i.i.i.i.i.i: ; preds = %.lr.ph.i.i.i.i
  %6 = load ptr, ptr %5, align 8
  %7 = getelementptr inbounds nuw i8, ptr %6, i64 8
  %8 = load ptr, ptr %7, align 8
  tail call void %8(ptr noundef nonnull align 8 dereferenceable(8) %5) #29
  br label %_ZSt8_DestroyISt10unique_ptrIN3ue215RoseInstructionESt14default_deleteIS2_EEEvPT_.exit.i.i.i.i

_ZSt8_DestroyISt10unique_ptrIN3ue215RoseInstructionESt14default_deleteIS2_EEEvPT_.exit.i.i.i.i: ; preds = %_ZNKSt14default_deleteIN3ue215RoseInstructionEEclEPS1_.exit.i.i.i.i.i.i, %.lr.ph.i.i.i.i
  store ptr null, ptr %.05.i.i.i.i, align 8
  %9 = getelementptr inbounds nuw i8, ptr %.05.i.i.i.i, i64 8
  %.not.i.i.i.i = icmp eq ptr %9, %4
  br i1 %.not.i.i.i.i, label %_ZSt8_DestroyIPSt10unique_ptrIN3ue215RoseInstructionESt14default_deleteIS2_EES5_EvT_S7_RSaIT0_E.exitthread-pre-split.i, label %.lr.ph.i.i.i.i, !llvm.loop !9

_ZSt8_DestroyIPSt10unique_ptrIN3ue215RoseInstructionESt14default_deleteIS2_EES5_EvT_S7_RSaIT0_E.exitthread-pre-split.i: ; preds = %_ZSt8_DestroyISt10unique_ptrIN3ue215RoseInstructionESt14default_deleteIS2_EEEvPT_.exit.i.i.i.i
  %.pr.i = load ptr, ptr %0, align 8
  br label %_ZSt8_DestroyIPSt10unique_ptrIN3ue215RoseInstructionESt14default_deleteIS2_EES5_EvT_S7_RSaIT0_E.exit.i

_ZSt8_DestroyIPSt10unique_ptrIN3ue215RoseInstructionESt14default_deleteIS2_EES5_EvT_S7_RSaIT0_E.exit.i: ; preds = %_ZSt8_DestroyIPSt10unique_ptrIN3ue215RoseInstructionESt14default_deleteIS2_EES5_EvT_S7_RSaIT0_E.exitthread-pre-split.i, %1
  %10 = phi ptr [ %.pr.i, %_ZSt8_DestroyIPSt10unique_ptrIN3ue215RoseInstructionESt14default_deleteIS2_EES5_EvT_S7_RSaIT0_E.exitthread-pre-split.i ], [ %2, %1 ]
  %.not.i.i.i = icmp eq ptr %10, null
  br i1 %.not.i.i.i, label %_ZNSt6vectorISt10unique_ptrIN3ue215RoseInstructionESt14default_deleteIS2_EESaIS5_EED2Ev.exit, label %11

11:                                               ; preds = %_ZSt8_DestroyIPSt10unique_ptrIN3ue215RoseInstructionESt14default_deleteIS2_EES5_EvT_S7_RSaIT0_E.exit.i
  tail call void @_ZdlPv(ptr noundef nonnull %10) #28
  br label %_ZNSt6vectorISt10unique_ptrIN3ue215RoseInstructionESt14default_deleteIS2_EESaIS5_EED2Ev.exit

_ZNSt6vectorISt10unique_ptrIN3ue215RoseInstructionESt14default_deleteIS2_EESaIS5_EED2Ev.exit: ; preds = %_ZSt8_DestroyIPSt10unique_ptrIN3ue215RoseInstructionESt14default_deleteIS2_EES5_EvT_S7_RSaIT0_E.exit.i, %11
  ret void
}